target datalayout = "e-m:e-p270:32:32-p271:32:32-p272:64:64-i64:64-i128:128-f80:128-n8:16:32:64-S128"
target triple = "x86_64-pc-linux-gnu"

@.str.2 = private unnamed_addr constant [140 x i8] c"generated/home/dtcxzyw/WorkSpace/Projects/compilers/llvm-opt-benchmark/bench/bullet3/bullet3/src/Bullet3OpenCL/Initialize/b3OpenCLUtils.cpp\00", align 1
@.str.4 = private unnamed_addr constant [17 x i8] c"b3Error[%s,%d]:\0A\00", align 1
@.str.77 = private unnamed_addr constant [21 x i8] c"compiling kernel %s \00", align 1
@__clewCreateKernel = external global ptr, align 8
@.str.78 = private unnamed_addr constant [82 x i8] c"Error in clCreateKernel, Line %u in file %s, cannot find kernel function %s !!!\0A\0A\00", align 1
@__clewReleaseProgram = external global ptr, align 8
@.str.79 = private unnamed_addr constant [9 x i8] c"ready. \0A\00", align 1

; Function Attrs: mustprogress uwtable
define dso_local ptr @b3OpenCLUtils_compileCLKernelFromString(ptr noundef %0, ptr noundef %1, ptr noundef %2, ptr noundef %3, ptr noundef %4, ptr noundef %5, ptr noundef %6) #0 {
  %8 = alloca ptr, align 8
  %9 = alloca ptr, align 8
  %10 = alloca ptr, align 8
  %11 = alloca ptr, align 8
  %12 = alloca ptr, align 8
  %13 = alloca ptr, align 8
  %14 = alloca ptr, align 8
  %15 = alloca ptr, align 8
  %16 = alloca ptr, align 8
  %17 = alloca i32, align 4
  %18 = alloca ptr, align 8
  %19 = alloca i32, align 4
  store ptr %0, ptr %9, align 8, !tbaa !23
  store ptr %1, ptr %10, align 8, !tbaa !33
  store ptr %2, ptr %11, align 8, !tbaa !4
  store ptr %3, ptr %12, align 8, !tbaa !4
  store ptr %4, ptr %13, align 8, !tbaa !14
  store ptr %5, ptr %14, align 8, !tbaa !67
  store ptr %6, ptr %15, align 8, !tbaa !4
  call void @llvm.lifetime.start.p0(i64 8, ptr %16) #9
  call void @llvm.lifetime.start.p0(i64 4, ptr %17) #9
  call void @llvm.lifetime.start.p0(i64 8, ptr %18) #9
  %20 = load ptr, ptr %14, align 8, !tbaa !67
  store ptr %20, ptr %18, align 8, !tbaa !67
  %21 = load ptr, ptr %12, align 8, !tbaa !4
  call void (ptr, ...) @b3OutputPrintfVarArgsInternal(ptr noundef @.str.77, ptr noundef %21)
  %22 = load ptr, ptr %18, align 8, !tbaa !67
  %23 = icmp ne ptr %22, null
  br i1 %23, label %31, label %24

24:                                               ; preds = %7
  %25 = load ptr, ptr %9, align 8, !tbaa !23
  %26 = load ptr, ptr %10, align 8, !tbaa !33
  %27 = load ptr, ptr %11, align 8, !tbaa !4
  %28 = load ptr, ptr %13, align 8, !tbaa !14
  %29 = load ptr, ptr %15, align 8, !tbaa !4
  %30 = call ptr @b3OpenCLUtils_compileCLProgramFromString(ptr noundef %25, ptr noundef %26, ptr noundef %27, ptr noundef %28, ptr noundef %29, ptr noundef null, i1 noundef zeroext false)
  store ptr %30, ptr %18, align 8, !tbaa !67
  br label %31

31:                                               ; preds = %24, %7
  %32 = load ptr, ptr @__clewCreateKernel, align 8, !tbaa !9
  %33 = load ptr, ptr %18, align 8, !tbaa !67
  %34 = load ptr, ptr %12, align 8, !tbaa !4
  %35 = call ptr %32(ptr noundef %33, ptr noundef %34, ptr noundef %17)
  store ptr %35, ptr %16, align 8, !tbaa !73
  %36 = load i32, ptr %17, align 4, !tbaa !12
  %37 = icmp ne i32 %36, 0
  br i1 %37, label %38, label %49

38:                                               ; preds = %31
  br label %39

39:                                               ; preds = %38
  call void (ptr, ...) @b3OutputErrorMessageVarArgsInternal(ptr noundef @.str.4, ptr noundef @.str.2, i32 noundef 947)
  %40 = load ptr, ptr %12, align 8, !tbaa !4
  call void (ptr, ...) @b3OutputErrorMessageVarArgsInternal(ptr noundef @.str.78, i32 noundef 947, ptr noundef @.str.2, ptr noundef %40)
  br label %41

41:                                               ; preds = %39
  br label %42

42:                                               ; preds = %41
  %43 = load ptr, ptr %13, align 8, !tbaa !14
  %44 = icmp ne ptr %43, null
  br i1 %44, label %45, label %48

45:                                               ; preds = %42
  %46 = load i32, ptr %17, align 4, !tbaa !12
  %47 = load ptr, ptr %13, align 8, !tbaa !14
  store i32 %46, ptr %47, align 4, !tbaa !12
  br label %48

48:                                               ; preds = %45, %42
  store ptr null, ptr %8, align 8
  store i32 1, ptr %19, align 4
  br label %66

49:                                               ; preds = %31
  %50 = load ptr, ptr %14, align 8, !tbaa !67
  %51 = icmp ne ptr %50, null
  br i1 %51, label %59, label %52

52:                                               ; preds = %49
  %53 = load ptr, ptr %18, align 8, !tbaa !67
  %54 = icmp ne ptr %53, null
  br i1 %54, label %55, label %59

55:                                               ; preds = %52
  %56 = load ptr, ptr @__clewReleaseProgram, align 8, !tbaa !9
  %57 = load ptr, ptr %18, align 8, !tbaa !67
  %58 = call i32 %56(ptr noundef %57)
  br label %59

59:                                               ; preds = %55, %52, %49
  call void (ptr, ...) @b3OutputPrintfVarArgsInternal(ptr noundef @.str.79)
  %60 = load ptr, ptr %13, align 8, !tbaa !14
  %61 = icmp ne ptr %60, null
  br i1 %61, label %62, label %64

62:                                               ; preds = %59
  %63 = load ptr, ptr %13, align 8, !tbaa !14
  store i32 0, ptr %63, align 4, !tbaa !12
  br label %64

64:                                               ; preds = %62, %59
  %65 = load ptr, ptr %16, align 8, !tbaa !73
  store ptr %65, ptr %8, align 8
  store i32 1, ptr %19, align 4
  br label %66

66:                                               ; preds = %64, %48
  call void @llvm.lifetime.end.p0(i64 8, ptr %18) #9
  call void @llvm.lifetime.end.p0(i64 4, ptr %17) #9
  call void @llvm.lifetime.end.p0(i64 8, ptr %16) #9
  %67 = load ptr, ptr %8, align 8
  ret ptr %67
}