; Function Attrs: mustprogress uwtable
define dso_local ptr @b3OpenCLUtils_compileCLKernelFromString(ptr noundef %0, ptr noundef %1, ptr noundef %2, ptr noundef %3, ptr noundef captures(address_is_null) %4, ptr noundef %5, ptr noundef %6) local_unnamed_addr #0 {
  %8 = alloca i32, align 4
  call void @llvm.lifetime.start.p0(i64 4, ptr nonnull %8) #12
  tail call void (ptr, ...) @b3OutputPrintfVarArgsInternal(ptr noundef nonnull @.str.77, ptr noundef %3)
  %.not = icmp eq ptr %5, null
  br i1 %.not, label %9, label %11

9:                                                ; preds = %7
  %10 = tail call ptr @b3OpenCLUtils_compileCLProgramFromString(ptr noundef %0, ptr noundef %1, ptr noundef %2, ptr noundef %4, ptr noundef %6, ptr noundef null, i1 noundef zeroext false)
  br label %11

11:                                               ; preds = %9, %7
  %.0 = phi ptr [ %5, %7 ], [ %10, %9 ]
  %12 = load ptr, ptr @__clewCreateKernel, align 8, !tbaa !8
  %13 = call ptr %12(ptr noundef %.0, ptr noundef %3, ptr noundef nonnull %8)
  %14 = load i32, ptr %8, align 4, !tbaa !4
  %.not24 = icmp eq i32 %14, 0
  br i1 %.not24, label %18, label %15

15:                                               ; preds = %11
  call void (ptr, ...) @b3OutputErrorMessageVarArgsInternal(ptr noundef nonnull @.str.4, ptr noundef nonnull @.str.2, i32 noundef 947)
  call void (ptr, ...) @b3OutputErrorMessageVarArgsInternal(ptr noundef nonnull @.str.78, i32 noundef 947, ptr noundef nonnull @.str.2, ptr noundef %3)
  %.not26 = icmp eq ptr %4, null
  br i1 %.not26, label %24, label %16

16:                                               ; preds = %15
  %17 = load i32, ptr %8, align 4, !tbaa !4
  br label %.sink.split

18:                                               ; preds = %11
  %19 = icmp ne ptr %.0, null
  %or.cond = and i1 %.not, %19
  br i1 %or.cond, label %20, label %23

20:                                               ; preds = %18
  %21 = load ptr, ptr @__clewReleaseProgram, align 8, !tbaa !8
  %22 = call i32 %21(ptr noundef nonnull %.0)
  br label %23

23:                                               ; preds = %20, %18
  call void (ptr, ...) @b3OutputPrintfVarArgsInternal(ptr noundef nonnull @.str.79)
  %.not25 = icmp eq ptr %4, null
  br i1 %.not25, label %24, label %.sink.split

.sink.split:                                      ; preds = %23, %16
  %.sink = phi i32 [ %17, %16 ], [ 0, %23 ]
  %.021.ph = phi ptr [ null, %16 ], [ %13, %23 ]
  store i32 %.sink, ptr %4, align 4, !tbaa !4
  br label %24

24:                                               ; preds = %.sink.split, %23, %15
  %.021 = phi ptr [ null, %15 ], [ %13, %23 ], [ %.021.ph, %.sink.split ]
  call void @llvm.lifetime.end.p0(i64 4, ptr nonnull %8) #12
  ret ptr %.021
}